; Function Attrs: mustprogress nounwind uwtable
define dso_local noundef zeroext i1 @_ZNK4llvm14CGIOperandList15hasOperandNamedENS_9StringRefERj(ptr nocapture noundef nonnull readonly align 8 dereferenceable(67) %0, ptr nocapture readonly %1, i64 %2, ptr nocapture noundef nonnull writeonly align 4 dereferenceable(4) %3) local_unnamed_addr #0 align 2 {
  %5 = getelementptr inbounds nuw i8, ptr %0, i64 16
  %6 = getelementptr inbounds i8, ptr %0, i64 24
  %7 = load ptr, ptr %6, align 8
  %8 = load ptr, ptr %5, align 8
  %9 = ptrtoint ptr %7 to i64
  %10 = ptrtoint ptr %8 to i64
  %11 = sub i64 %9, %10
  %12 = sdiv exact i64 %11, 264
  %13 = and i64 %12, 4294967295
  %.not16.not = icmp eq i64 %13, 0
  br i1 %.not16.not, label %.loopexit, label %.lr.ph.preheader

.lr.ph.preheader:                                 ; preds = %4
  %14 = and i64 %12, 4294967295
  %15 = icmp eq i64 %2, 0
  br label %.lr.ph

.lr.ph:                                           ; preds = %.lr.ph.preheader, %_ZN4llvmeqENS_9StringRefES0_.exit.thread11
  %indvars.iv = phi i64 [ 0, %.lr.ph.preheader ], [ %indvars.iv.next, %_ZN4llvmeqENS_9StringRefES0_.exit.thread11 ]
  %16 = load ptr, ptr %5, align 8
  %17 = getelementptr inbounds %"struct.llvm::CGIOperandList::OperandInfo", ptr %16, i64 %indvars.iv, i32 1
  %18 = tail call noundef ptr @_ZNKSt7__cxx1112basic_stringIcSt11char_traitsIcESaIcEE4dataEv(ptr noundef nonnull align 8 dereferenceable(32) %17) #15
  %19 = tail call noundef i64 @_ZNKSt7__cxx1112basic_stringIcSt11char_traitsIcESaIcEE6lengthEv(ptr noundef nonnull align 8 dereferenceable(32) %17) #15
  %.not.i = icmp eq i64 %19, %2
  br i1 %.not.i, label %20, label %_ZN4llvmeqENS_9StringRefES0_.exit.thread11

20:                                               ; preds = %.lr.ph
  br i1 %15, label %_ZN4llvmeqENS_9StringRefES0_.exit.thread, label %_ZN4llvmeqENS_9StringRefES0_.exit

_ZN4llvmeqENS_9StringRefES0_.exit:                ; preds = %20
  %bcmp.i = tail call i32 @bcmp(ptr %18, ptr %1, i64 %2)
  %21 = icmp eq i32 %bcmp.i, 0
  br i1 %21, label %_ZN4llvmeqENS_9StringRefES0_.exit.thread, label %_ZN4llvmeqENS_9StringRefES0_.exit.thread11

_ZN4llvmeqENS_9StringRefES0_.exit.thread:         ; preds = %20, %_ZN4llvmeqENS_9StringRefES0_.exit
  %22 = trunc nuw i64 %indvars.iv to i32
  store i32 %22, ptr %3, align 4
  br label %.loopexit

_ZN4llvmeqENS_9StringRefES0_.exit.thread11:       ; preds = %.lr.ph, %_ZN4llvmeqENS_9StringRefES0_.exit
  %indvars.iv.next = add nuw nsw i64 %indvars.iv, 1
  %.not.not = icmp eq i64 %indvars.iv.next, %14
  br i1 %.not.not, label %.loopexit, label %.lr.ph, !llvm.loop !60

.loopexit:                                        ; preds = %_ZN4llvmeqENS_9StringRefES0_.exit.thread11, %4, %_ZN4llvmeqENS_9StringRefES0_.exit.thread
  %.not14 = phi i1 [ true, %_ZN4llvmeqENS_9StringRefES0_.exit.thread ], [ false, %4 ], [ false, %_ZN4llvmeqENS_9StringRefES0_.exit.thread11 ]
  ret i1 %.not14
}